target datalayout = "e-m:e-p270:32:32-p271:32:32-p272:64:64-i64:64-i128:128-f80:128-n8:16:32:64-S128"
target triple = "x86_64-unknown-linux-gnu"

%struct.UStringSearch = type { ptr, %struct.UPattern, ptr, ptr, ptr, ptr, ptr, i8, i32, i32, i32, i8 }
%struct.UPattern = type { ptr, i32, i32, ptr, [256 x i32], i32, ptr, [256 x i64], i8, i8 }
%struct.USearch = type { ptr, i32, i8, i8, i16, ptr, ptr, i32, i32, i8, i8 }

; Function Attrs: mustprogress nounwind uwtable
define internal noundef i32 @_ZL7getMask18UColAttributeValue(i32 noundef %strength) #1 {
entry:
  %retval = alloca i32, align 4
  %strength.addr = alloca i32, align 4
  store i32 %strength, ptr %strength.addr, align 4
  %0 = load i32, ptr %strength.addr, align 4
  switch i32 %0, label %sw.default [
    i32 0, label %sw.bb
    i32 1, label %sw.bb1
  ]

sw.bb:                                            ; preds = %entry
  store i32 -65536, ptr %retval, align 4
  br label %return

sw.bb1:                                           ; preds = %entry
  store i32 -256, ptr %retval, align 4
  br label %return

sw.default:                                       ; preds = %entry
  store i32 -1, ptr %retval, align 4
  br label %return

return:                                           ; preds = %sw.default, %sw.bb1, %sw.bb
  %1 = load i32, ptr %retval, align 4
  ret i32 %1
}

; Function Attrs: mustprogress nounwind uwtable
define internal noundef signext i8 @_ZL9U_SUCCESS10UErrorCode(i32 noundef %code) #1 {
entry:
  %code.addr = alloca i32, align 4
  store i32 %code, ptr %code.addr, align 4
  %0 = load i32, ptr %code.addr, align 4
  %cmp = icmp sle i32 %0, 0
  %conv = zext i1 %cmp to i8
  ret i8 %conv
}

; Function Attrs: mustprogress uwtable
define void @usearch_setCollator_75(ptr noundef %strsrch, ptr noundef %collator, ptr noundef %status) #0 {
entry:
  %strsrch.addr = alloca ptr, align 8
  %collator.addr = alloca ptr, align 8
  %status.addr = alloca ptr, align 8
  store ptr %strsrch, ptr %strsrch.addr, align 8
  store ptr %collator, ptr %collator.addr, align 8
  store ptr %status, ptr %status.addr, align 8
  %0 = load ptr, ptr %status.addr, align 8
  %1 = load i32, ptr %0, align 4
  %call = call noundef signext i8 @_ZL9U_SUCCESS10UErrorCode(i32 noundef %1)
  %tobool = icmp ne i8 %call, 0
  br i1 %tobool, label %if.then, label %if.end38

if.then:                                          ; preds = %entry
  %2 = load ptr, ptr %collator.addr, align 8
  %cmp = icmp eq ptr %2, null
  br i1 %cmp, label %if.then1, label %if.end

if.then1:                                         ; preds = %if.then
  %3 = load ptr, ptr %status.addr, align 8
  store i32 1, ptr %3, align 4
  br label %if.end38

if.end:                                           ; preds = %if.then
  %4 = load ptr, ptr %strsrch.addr, align 8
  %tobool2 = icmp ne ptr %4, null
  br i1 %tobool2, label %if.then3, label %if.end37

if.then3:                                         ; preds = %if.end
  %5 = load ptr, ptr %strsrch.addr, align 8
  %textProcessedIter = getelementptr inbounds %struct.UStringSearch, ptr %5, i32 0, i32 5
  %6 = load ptr, ptr %textProcessedIter, align 8
  %isnull = icmp eq ptr %6, null
  br i1 %isnull, label %delete.end, label %delete.notnull

delete.notnull:                                   ; preds = %if.then3
  call void @_ZN6icu_7513UCollationPCED1Ev(ptr noundef nonnull align 8 dereferenceable(292) %6) #8
  call void @_ZN6icu_757UMemorydlEPv(ptr noundef %6) #8
  br label %delete.end

delete.end:                                       ; preds = %delete.notnull, %if.then3
  %7 = load ptr, ptr %strsrch.addr, align 8
  %textProcessedIter4 = getelementptr inbounds %struct.UStringSearch, ptr %7, i32 0, i32 5
  store ptr null, ptr %textProcessedIter4, align 8
  %8 = load ptr, ptr %strsrch.addr, align 8
  %textIter = getelementptr inbounds %struct.UStringSearch, ptr %8, i32 0, i32 4
  %9 = load ptr, ptr %textIter, align 8
  call void @ucol_closeElements_75(ptr noundef %9)
  %10 = load ptr, ptr %strsrch.addr, align 8
  %utilIter = getelementptr inbounds %struct.UStringSearch, ptr %10, i32 0, i32 6
  %11 = load ptr, ptr %utilIter, align 8
  call void @ucol_closeElements_75(ptr noundef %11)
  %12 = load ptr, ptr %strsrch.addr, align 8
  %utilIter5 = getelementptr inbounds %struct.UStringSearch, ptr %12, i32 0, i32 6
  store ptr null, ptr %utilIter5, align 8
  %13 = load ptr, ptr %strsrch.addr, align 8
  %textIter6 = getelementptr inbounds %struct.UStringSearch, ptr %13, i32 0, i32 4
  store ptr null, ptr %textIter6, align 8
  %14 = load ptr, ptr %strsrch.addr, align 8
  %ownCollator = getelementptr inbounds %struct.UStringSearch, ptr %14, i32 0, i32 7
  %15 = load i8, ptr %ownCollator, align 8
  %tobool7 = icmp ne i8 %15, 0
  br i1 %tobool7, label %land.lhs.true, label %if.end13

land.lhs.true:                                    ; preds = %delete.end
  %16 = load ptr, ptr %strsrch.addr, align 8
  %collator8 = getelementptr inbounds %struct.UStringSearch, ptr %16, i32 0, i32 2
  %17 = load ptr, ptr %collator8, align 8
  %18 = load ptr, ptr %collator.addr, align 8
  %cmp9 = icmp ne ptr %17, %18
  br i1 %cmp9, label %if.then10, label %if.end13

if.then10:                                        ; preds = %land.lhs.true
  %19 = load ptr, ptr %strsrch.addr, align 8
  %collator11 = getelementptr inbounds %struct.UStringSearch, ptr %19, i32 0, i32 2
  %20 = load ptr, ptr %collator11, align 8
  call void @ucol_close_75(ptr noundef %20)
  %21 = load ptr, ptr %strsrch.addr, align 8
  %ownCollator12 = getelementptr inbounds %struct.UStringSearch, ptr %21, i32 0, i32 7
  store i8 0, ptr %ownCollator12, align 8
  br label %if.end13

if.end13:                                         ; preds = %if.then10, %land.lhs.true, %delete.end
  %22 = load ptr, ptr %collator.addr, align 8
  %23 = load ptr, ptr %strsrch.addr, align 8
  %collator14 = getelementptr inbounds %struct.UStringSearch, ptr %23, i32 0, i32 2
  store ptr %22, ptr %collator14, align 8
  %24 = load ptr, ptr %collator.addr, align 8
  %call15 = call i32 @ucol_getStrength_75(ptr noundef %24)
  %25 = load ptr, ptr %strsrch.addr, align 8
  %strength = getelementptr inbounds %struct.UStringSearch, ptr %25, i32 0, i32 8
  store i32 %call15, ptr %strength, align 4
  %26 = load ptr, ptr %strsrch.addr, align 8
  %strength16 = getelementptr inbounds %struct.UStringSearch, ptr %26, i32 0, i32 8
  %27 = load i32, ptr %strength16, align 4
  %call17 = call noundef i32 @_ZL7getMask18UColAttributeValue(i32 noundef %27)
  %28 = load ptr, ptr %strsrch.addr, align 8
  %ceMask = getelementptr inbounds %struct.UStringSearch, ptr %28, i32 0, i32 9
  store i32 %call17, ptr %ceMask, align 8
  %29 = load ptr, ptr %strsrch.addr, align 8
  %search = getelementptr inbounds %struct.UStringSearch, ptr %29, i32 0, i32 0
  %30 = load ptr, ptr %search, align 8
  %internalBreakIter = getelementptr inbounds %struct.USearch, ptr %30, i32 0, i32 5
  %31 = load ptr, ptr %internalBreakIter, align 8
  %cmp18 = icmp ne ptr %31, null
  br i1 %cmp18, label %if.then19, label %if.end24

if.then19:                                        ; preds = %if.end13
  %32 = load ptr, ptr %strsrch.addr, align 8
  %search20 = getelementptr inbounds %struct.UStringSearch, ptr %32, i32 0, i32 0
  %33 = load ptr, ptr %search20, align 8
  %internalBreakIter21 = getelementptr inbounds %struct.USearch, ptr %33, i32 0, i32 5
  %34 = load ptr, ptr %internalBreakIter21, align 8
  call void @ubrk_close_75(ptr noundef %34)
  %35 = load ptr, ptr %strsrch.addr, align 8
  %search22 = getelementptr inbounds %struct.UStringSearch, ptr %35, i32 0, i32 0
  %36 = load ptr, ptr %search22, align 8
  %internalBreakIter23 = getelementptr inbounds %struct.USearch, ptr %36, i32 0, i32 5
  store ptr null, ptr %internalBreakIter23, align 8
  br label %if.end24

if.end24:                                         ; preds = %if.then19, %if.end13
  %37 = load ptr, ptr %collator.addr, align 8
  %38 = load ptr, ptr %status.addr, align 8
  %call25 = call i32 @ucol_getAttribute_75(ptr noundef %37, i32 noundef 1, ptr noundef %38)
  %cmp26 = icmp eq i32 %call25, 20
  %conv = zext i1 %cmp26 to i8
  %39 = load ptr, ptr %strsrch.addr, align 8
  %toShift = getelementptr inbounds %struct.UStringSearch, ptr %39, i32 0, i32 11
  store i8 %conv, ptr %toShift, align 8
  %40 = load ptr, ptr %collator.addr, align 8
  %41 = load ptr, ptr %status.addr, align 8
  %call27 = call i32 @ucol_getVariableTop_75(ptr noundef %40, ptr noundef %41)
  %42 = load ptr, ptr %strsrch.addr, align 8
  %variableTop = getelementptr inbounds %struct.UStringSearch, ptr %42, i32 0, i32 10
  store i32 %call27, ptr %variableTop, align 4
  %43 = load ptr, ptr %collator.addr, align 8
  %44 = load ptr, ptr %strsrch.addr, align 8
  %search28 = getelementptr inbounds %struct.UStringSearch, ptr %44, i32 0, i32 0
  %45 = load ptr, ptr %search28, align 8
  %text = getelementptr inbounds %struct.USearch, ptr %45, i32 0, i32 0
  %46 = load ptr, ptr %text, align 8
  %47 = load ptr, ptr %strsrch.addr, align 8
  %search29 = getelementptr inbounds %struct.UStringSearch, ptr %47, i32 0, i32 0
  %48 = load ptr, ptr %search29, align 8
  %textLength = getelementptr inbounds %struct.USearch, ptr %48, i32 0, i32 1
  %49 = load i32, ptr %textLength, align 8
  %50 = load ptr, ptr %status.addr, align 8
  %call30 = call ptr @ucol_openElements_75(ptr noundef %43, ptr noundef %46, i32 noundef %49, ptr noundef %50)
  %51 = load ptr, ptr %strsrch.addr, align 8
  %textIter31 = getelementptr inbounds %struct.UStringSearch, ptr %51, i32 0, i32 4
  store ptr %call30, ptr %textIter31, align 8
  %52 = load ptr, ptr %collator.addr, align 8
  %53 = load ptr, ptr %strsrch.addr, align 8
  %pattern = getelementptr inbounds %struct.UStringSearch, ptr %53, i32 0, i32 1
  %text32 = getelementptr inbounds %struct.UPattern, ptr %pattern, i32 0, i32 0
  %54 = load ptr, ptr %text32, align 8
  %55 = load ptr, ptr %strsrch.addr, align 8
  %pattern33 = getelementptr inbounds %struct.UStringSearch, ptr %55, i32 0, i32 1
  %textLength34 = getelementptr inbounds %struct.UPattern, ptr %pattern33, i32 0, i32 1
  %56 = load i32, ptr %textLength34, align 8
  %57 = load ptr, ptr %status.addr, align 8
  %call35 = call ptr @ucol_openElements_75(ptr noundef %52, ptr noundef %54, i32 noundef %56, ptr noundef %57)
  %58 = load ptr, ptr %strsrch.addr, align 8
  %utilIter36 = getelementptr inbounds %struct.UStringSearch, ptr %58, i32 0, i32 6
  store ptr %call35, ptr %utilIter36, align 8
  %59 = load ptr, ptr %strsrch.addr, align 8
  %60 = load ptr, ptr %status.addr, align 8
  call void @_ZL10initializeP13UStringSearchP10UErrorCode(ptr noundef %59, ptr noundef %60)
  br label %if.end37

if.end37:                                         ; preds = %if.end24, %if.end
  br label %if.end38

if.end38:                                         ; preds = %if.end37, %if.then1, %entry
  ret void
}