; Function Attrs: mustprogress uwtable
define void @usearch_setCollator_75(ptr noundef %strsrch, ptr noundef %collator, ptr noundef %status) local_unnamed_addr #0 {
entry:
  %0 = load i32, ptr %status, align 4
  %cmp.i = icmp sgt i32 %0, 0
  br i1 %cmp.i, label %if.end38, label %if.then

if.then:                                          ; preds = %entry
  %cmp = icmp eq ptr %collator, null
  br i1 %cmp, label %if.then1, label %if.end

if.then1:                                         ; preds = %if.then
  store i32 1, ptr %status, align 4
  br label %if.end38

if.end:                                           ; preds = %if.then
  %tobool2.not = icmp eq ptr %strsrch, null
  br i1 %tobool2.not, label %if.end38, label %if.then3

if.then3:                                         ; preds = %if.end
  %textProcessedIter = getelementptr inbounds i8, ptr %strsrch, i64 3152
  %1 = load ptr, ptr %textProcessedIter, align 8
  %isnull = icmp eq ptr %1, null
  br i1 %isnull, label %delete.end, label %delete.notnull

delete.notnull:                                   ; preds = %if.then3
  tail call void @_ZN6icu_7513UCollationPCED1Ev(ptr noundef nonnull align 8 dereferenceable(292) %1) #17
  tail call void @_ZN6icu_757UMemorydlEPv(ptr noundef nonnull %1) #17
  br label %delete.end

delete.end:                                       ; preds = %delete.notnull, %if.then3
  store ptr null, ptr %textProcessedIter, align 8
  %textIter = getelementptr inbounds i8, ptr %strsrch, i64 3144
  %2 = load ptr, ptr %textIter, align 8
  tail call void @ucol_closeElements_75(ptr noundef %2)
  %utilIter = getelementptr inbounds i8, ptr %strsrch, i64 3160
  %3 = load ptr, ptr %utilIter, align 8
  tail call void @ucol_closeElements_75(ptr noundef %3)
  store ptr null, ptr %utilIter, align 8
  store ptr null, ptr %textIter, align 8
  %ownCollator = getelementptr inbounds i8, ptr %strsrch, i64 3168
  %4 = load i8, ptr %ownCollator, align 8
  %tobool7.not = icmp eq i8 %4, 0
  br i1 %tobool7.not, label %if.end13, label %land.lhs.true

land.lhs.true:                                    ; preds = %delete.end
  %collator8 = getelementptr inbounds i8, ptr %strsrch, i64 3128
  %5 = load ptr, ptr %collator8, align 8
  %cmp9.not = icmp eq ptr %5, %collator
  br i1 %cmp9.not, label %if.end13, label %if.then10

if.then10:                                        ; preds = %land.lhs.true
  tail call void @ucol_close_75(ptr noundef %5)
  store i8 0, ptr %ownCollator, align 8
  br label %if.end13

if.end13:                                         ; preds = %if.then10, %land.lhs.true, %delete.end
  %collator14 = getelementptr inbounds i8, ptr %strsrch, i64 3128
  store ptr %collator, ptr %collator14, align 8
  %call15 = tail call i32 @ucol_getStrength_75(ptr noundef nonnull %collator)
  %strength = getelementptr inbounds i8, ptr %strsrch, i64 3172
  store i32 %call15, ptr %strength, align 4
  %switch.selectcmp.i = icmp eq i32 %call15, 1
  %switch.select.i = select i1 %switch.selectcmp.i, i32 -256, i32 -1
  %switch.selectcmp1.i = icmp eq i32 %call15, 0
  %switch.select2.i = select i1 %switch.selectcmp1.i, i32 -65536, i32 %switch.select.i
  %ceMask = getelementptr inbounds i8, ptr %strsrch, i64 3176
  store i32 %switch.select2.i, ptr %ceMask, align 8
  %6 = load ptr, ptr %strsrch, align 8
  %internalBreakIter = getelementptr inbounds i8, ptr %6, i64 16
  %7 = load ptr, ptr %internalBreakIter, align 8
  %cmp18.not = icmp eq ptr %7, null
  br i1 %cmp18.not, label %if.end24, label %if.then19

if.then19:                                        ; preds = %if.end13
  tail call void @ubrk_close_75(ptr noundef nonnull %7)
  %8 = load ptr, ptr %strsrch, align 8
  %internalBreakIter23 = getelementptr inbounds i8, ptr %8, i64 16
  store ptr null, ptr %internalBreakIter23, align 8
  br label %if.end24

if.end24:                                         ; preds = %if.then19, %if.end13
  %call25 = tail call i32 @ucol_getAttribute_75(ptr noundef nonnull %collator, i32 noundef 1, ptr noundef nonnull %status)
  %cmp26 = icmp eq i32 %call25, 20
  %conv = zext i1 %cmp26 to i8
  %toShift = getelementptr inbounds i8, ptr %strsrch, i64 3184
  store i8 %conv, ptr %toShift, align 8
  %call27 = tail call i32 @ucol_getVariableTop_75(ptr noundef nonnull %collator, ptr noundef nonnull %status)
  %variableTop = getelementptr inbounds i8, ptr %strsrch, i64 3180
  store i32 %call27, ptr %variableTop, align 4
  %9 = load ptr, ptr %strsrch, align 8
  %10 = load ptr, ptr %9, align 8
  %textLength = getelementptr inbounds i8, ptr %9, i64 8
  %11 = load i32, ptr %textLength, align 8
  %call30 = tail call ptr @ucol_openElements_75(ptr noundef nonnull %collator, ptr noundef %10, i32 noundef %11, ptr noundef nonnull %status)
  store ptr %call30, ptr %textIter, align 8
  %pattern = getelementptr inbounds i8, ptr %strsrch, i64 8
  %12 = load ptr, ptr %pattern, align 8
  %textLength34 = getelementptr inbounds i8, ptr %strsrch, i64 16
  %13 = load i32, ptr %textLength34, align 8
  %call35 = tail call ptr @ucol_openElements_75(ptr noundef nonnull %collator, ptr noundef %12, i32 noundef %13, ptr noundef nonnull %status)
  store ptr %call35, ptr %utilIter, align 8
  tail call fastcc void @_ZL10initializeP13UStringSearchP10UErrorCode(ptr noundef nonnull %strsrch, ptr noundef nonnull %status)
  br label %if.end38

if.end38:                                         ; preds = %if.end, %if.end24, %if.then1, %entry
  ret void
}